target datalayout = "e-m:e-p270:32:32-p271:32:32-p272:64:64-i64:64-i128:128-f80:128-n8:16:32:64-S128"
target triple = "x86_64-pc-linux-gnu"

%"struct.cv::VideoDeprecatedBackendInfo" = type { i32, ptr }

; Function Attrs: mustprogress nounwind uwtable
define hidden noundef zeroext i1 @_ZN2cv16videoio_registry22checkDeprecatedBackendEi(i32 noundef %0) #7 {
  %2 = alloca i1, align 1
  %3 = alloca i32, align 4
  %4 = alloca i32, align 4
  %5 = alloca i64, align 8
  %6 = alloca i32, align 4
  store i32 %0, ptr %3, align 4, !tbaa !39
  call void @llvm.lifetime.start.p0(i64 4, ptr %4) #3
  store i32 5, ptr %4, align 4, !tbaa !39
  call void @llvm.lifetime.start.p0(i64 8, ptr %5) #3
  store i64 0, ptr %5, align 8, !tbaa !27
  br label %7

7:                                                ; preds = %20, %1
  %8 = load i64, ptr %5, align 8, !tbaa !27
  %9 = icmp ult i64 %8, 5
  br i1 %9, label %11, label %10

10:                                               ; preds = %7
  store i32 2, ptr %6, align 4
  br label %23

11:                                               ; preds = %7
  %12 = load i64, ptr %5, align 8, !tbaa !27
  %13 = getelementptr inbounds nuw [5 x %"struct.cv::VideoDeprecatedBackendInfo"], ptr @_ZN2cv12_GLOBAL__N_119deprecated_backendsE, i64 0, i64 %12
  %14 = getelementptr inbounds nuw %"struct.cv::VideoDeprecatedBackendInfo", ptr %13, i32 0, i32 0
  %15 = load i32, ptr %14, align 16, !tbaa !40
  %16 = load i32, ptr %3, align 4, !tbaa !39
  %17 = icmp eq i32 %15, %16
  br i1 %17, label %18, label %19

18:                                               ; preds = %11
  store i1 true, ptr %2, align 1
  store i32 1, ptr %6, align 4
  br label %23

19:                                               ; preds = %11
  br label %20

20:                                               ; preds = %19
  %21 = load i64, ptr %5, align 8, !tbaa !27
  %22 = add i64 %21, 1
  store i64 %22, ptr %5, align 8, !tbaa !27
  br label %7, !llvm.loop !42

23:                                               ; preds = %18, %10
  call void @llvm.lifetime.end.p0(i64 8, ptr %5) #3
  %24 = load i32, ptr %6, align 4
  switch i32 %24, label %26 [
    i32 2, label %25
  ]

25:                                               ; preds = %23
  store i1 false, ptr %2, align 1
  store i32 1, ptr %6, align 4
  br label %26

26:                                               ; preds = %25, %23
  call void @llvm.lifetime.end.p0(i64 4, ptr %4) #3
  %27 = load i1, ptr %2, align 1
  ret i1 %27
}