; Function Attrs: mustprogress nofree norecurse nosync nounwind willreturn memory(none) uwtable
define hidden noundef zeroext i1 @_ZN2cv16videoio_registry22checkDeprecatedBackendEi(i32 noundef %0) local_unnamed_addr #7 {
  br label %2

2:                                                ; preds = %2, %1
  %.057 = phi i64 [ 0, %1 ], [ %6, %2 ]
  %3 = getelementptr inbounds nuw [5 x %"struct.cv::VideoDeprecatedBackendInfo"], ptr @_ZN2cv12_GLOBAL__N_119deprecated_backendsE, i64 0, i64 %.057
  %4 = load i32, ptr %3, align 16, !tbaa !52
  %5 = icmp eq i32 %4, %0
  %6 = add nuw nsw i64 %.057, 1
  %exitcond.not = icmp eq i64 %6, 5
  %or.cond = select i1 %5, i1 true, i1 %exitcond.not
  br i1 %or.cond, label %.critedge, label %2, !llvm.loop !54

.critedge:                                        ; preds = %2
  ret i1 %5
}